(dp1
S'audience.n.bnc.00079357'
p2
(lp3
S'audience%1:14:00::'
p4
aS'audience%1:14:01::'
p5
asS'decide.v.bnc.00002226'
p6
(lp7
S'1067503'
p8
aS'1067504'
p9
asS'climb.v.bnc.00096758'
p10
(lp11
S'770002'
p12
asS'audience.n.bnc.00056687'
p13
(lp14
S'audience%1:14:00::'
p15
asS'climb.v.bnc.00059821'
p16
(lp17
S'770001'
p18
asS'audience.n.bnc.00096993'
p19
(lp20
S'audience%1:14:00::'
p21
asS'atmosphere.n.bnc.00226733'
p22
(lp23
S'atmosphere%1:26:01::'
p24
asS'ask.v.bnc.00037570'
p25
(lp26
S'238101'
p27
asS'decide.v.bnc.00060023'
p28
(lp29
S'1067503'
p30
asS'audience.n.bnc.00056634'
p31
(lp32
S'audience%1:14:00::'
p33
asS'ask.v.bnc.00028510'
p34
(lp35
S'238101'
p36
asS'ask.v.bnc.00028518'
p37
(lp38
S'238101'
p39
asS'decide.v.bnc.00042645'
p40
(lp41
S'1067503'
p42
asS'atmosphere.n.bnc.00015897'
p43
(lp44
S'atmosphere%1:26:01::'
p45
asS'audience.n.bnc.00116784'
p46
(lp47
S'audience%1:14:00::'
p48
asS'decide.v.bnc.00042443'
p49
(lp50
S'1067503'
p51
asS'begin.v.bnc.00012807'
p52
(lp53
S'369201'
p54
aS'369203'
p55
asS'climb.v.bnc.00306844'
p56
(lp57
S'770001'
p58
asS'decide.v.bnc.00010984'
p59
(lp60
S'1067503'
p61
asS'climb.v.bnc.00104799'
p62
(lp63
S'770001'
p64
asS'decide.v.bnc.00025699'
p65
(lp66
S'1067503'
p67
asS'bank.n.bnc.00075880'
p68
(lp69
S'bank%1:14:00::'
p70
asS'atmosphere.n.bnc.00080653'
p71
(lp72
S'atmosphere%1:26:01::'
p73
asS'bank.n.bnc.00187249'
p74
(lp75
S'bank%1:06:00::'
p76
asS'ask.v.bnc.00024125'
p77
(lp78
S'238105'
p79
asS'decide.v.bnc.00062778'
p80
(lp81
S'1067503'
p82
asS'atmosphere.n.bnc.00055732'
p83
(lp84
S'atmosphere%1:07:00::'
p85
aS'atmosphere%1:26:01::'
p86
asS'ask.v.bnc.00035500'
p87
(lp88
S'238102'
p89
aS'238103'
p90
asS'ask.v.bnc.00037479'
p91
(lp92
S'U'
asS'bank.n.bnc.00156034'
p93
(lp94
S'bank%1:14:00::'
p95
asS'bank.n.bnc.00156031'
p96
(lp97
S'bank%1:14:00::'
p98
asS'atmosphere.n.bnc.00057136'
p99
(lp100
S'atmosphere%1:07:00::'
p101
asS'audience.n.bnc.00100482'
p102
(lp103
S'audience%1:14:00::'
p104
asS'audience.n.bnc.00079914'
p105
(lp106
S'audience%1:14:00::'
p107
asS'begin.v.bnc.00002218'
p108
(lp109
S'369202'
p110
asS'atmosphere.n.bnc.00074322'
p111
(lp112
S'atmosphere%1:07:00::'
p113
aS'atmosphere%1:26:01::'
p114
asS'bank.n.bnc.00084199'
p115
(lp116
S'bank%1:14:00::'
p117
asS'ask.v.bnc.00031159'
p118
(lp119
S'238104'
p120
asS'decide.v.bnc.00052414'
p121
(lp122
S'1067504'
p123
asS'begin.v.bnc.00018584'
p124
(lp125
S'369203'
p126
asS'audience.n.bnc.00126781'
p127
(lp128
S'audience%1:14:01::'
p129
asS'bank.n.bnc.00088183'
p130
(lp131
S'bank%1:14:00::'
p132
asS'bank.n.bnc.00088186'
p133
(lp134
S'bank%1:14:00::'
p135
asS'audience.n.bnc.00134064'
p136
(lp137
S'audience%1:14:00::'
p138
asS'atmosphere.n.bnc.00169842'
p139
(lp140
S'atmosphere%1:26:01::'
p141
asS'ask.v.bnc.00020002'
p142
(lp143
S'238105'
p144
asS'audience.n.bnc.00127164'
p145
(lp146
S'audience%1:14:01::'
p147
asS'bank.n.bnc.00036509'
p148
(lp149
S'bank%1:17:01::'
p150
asS'audience.n.bnc.00018611'
p151
(lp152
S'audience%1:14:01::'
p153
asS'audience.n.bnc.00018614'
p154
(lp155
S'audience%1:14:01::'
p156
asS'decide.v.bnc.00063252'
p157
(lp158
S'1067503'
p159
asS'bank.n.bnc.00100691'
p160
(lp161
S'bank%1:14:00::'
p162
asS'bank.n.bnc.00084361'
p163
(lp164
S'bank%1:14:00::'
p165
asS'bank.n.bnc.00142670'
p166
(lp167
S'bank%1:06:00::'
p168
asS'atmosphere.n.bnc.00072055'
p169
(lp170
S'atmosphere%1:07:00::'
p171
aS'atmosphere%1:26:01::'
p172
asS'bank.n.bnc.00162249'
p173
(lp174
S'bank%1:17:01::'
p175
asS'audience.n.bnc.00109187'
p176
(lp177
S'audience%1:14:00::'
p178
asS'begin.v.bnc.00036485'
p179
(lp180
S'369201'
p181
aS'369203'
p182
asS'climb.v.bnc.00059798'
p183
(lp184
S'770005'
p185
asS'bank.n.bnc.00186825'
p186
(lp187
S'bank%1:17:01::'
p188
asS'bank.n.bnc.00047847'
p189
(lp190
S'bank%1:14:00::'
p191
asS'climb.v.bnc.00059484'
p192
(lp193
S'770005'
p194
asS'bank.n.bnc.00130591'
p195
(lp196
S'bank%1:14:01::'
p197
asS'audience.n.bnc.00055789'
p198
(lp199
S'audience%1:14:01::'
p200
asS'ask.v.bnc.00035880'
p201
(lp202
S'238105'
p203
asS'bank.n.bnc.00142836'
p204
(lp205
S'bank%1:06:00::'
p206
asS'audience.n.bnc.00003593'
p207
(lp208
S'audience%1:14:01::'
p209
asS'audience.n.bnc.00057041'
p210
(lp211
S'audience%1:14:00::'
p212
asS'decide.v.bnc.00058766'
p213
(lp214
S'1067501'
p215
asS'climb.v.bnc.00059288'
p216
(lp217
S'770005'
p218
asS'atmosphere.n.bnc.00239416'
p219
(lp220
S'atmosphere%1:26:00::'
p221
asS'audience.n.bnc.00100475'
p222
(lp223
S'audience%1:14:00::'
p224
asS'climb.v.bnc.00290574'
p225
(lp226
S'770001'
p227
asS'ask.v.bnc.00038218'
p228
(lp229
S'238106'
p230
asS'ask.v.bnc.00017252'
p231
(lp232
S'238104'
p233
asS'climb.v.bnc.00037573'
p234
(lp235
S'770005'
p236
asS'atmosphere.n.bnc.00057896'
p237
(lp238
S'atmosphere%1:07:00::'
p239
asS'ask.v.bnc.00029545'
p240
(lp241
S'238101'
p242
aS'238105'
p243
asS'climb.v.bnc.00278152'
p244
(lp245
S'770001'
p246
asS'bank.n.bnc.00072304'
p247
(lp248
S'bank%1:14:00::'
p249
asS'atmosphere.n.bnc.00234200'
p250
(lp251
S'atmosphere%1:26:01::'
p252
asS'audience.n.bnc.00135239'
p253
(lp254
S'audience%1:14:01::'
p255
asS'audience.n.bnc.00057607'
p256
(lp257
S'audience%1:14:00::'
p258
asS'bank.n.bnc.00159013'
p259
(lp260
S'bank%1:17:00::'
p261
aS'bank%1:17:02::'
p262
asS'bank.n.bnc.00159010'
p263
(lp264
S'bank%1:17:00::'
p265
aS'bank%1:17:02::'
p266
asS'bank.n.bnc.00012930'
p267
(lp268
S'bank%1:14:01::'
p269
asS'bank.n.bnc.00080277'
p270
(lp271
S'bank%1:14:00::'
p272
asS'bank.n.bnc.00119099'
p273
(lp274
S'bank%1:14:00::'
p275
asS'climb.v.bnc.00210056'
p276
(lp277
S'770001'
p278
asS'ask.v.bnc.00035713'
p279
(lp280
S'238101'
p281
aS'238105'
p282
asS'decide.v.bnc.00014430'
p283
(lp284
S'1067503'
p285
asS'begin.v.bnc.00005094'
p286
(lp287
S'369201'
p288
asS'bank.n.bnc.00061083'
p289
(lp290
S'bank%1:14:01::'
p291
asS'atmosphere.n.bnc.00048043'
p292
(lp293
S'atmosphere%1:07:00::'
p294
aS'atmosphere%1:26:01::'
p295
asS'atmosphere.n.bnc.00062908'
p296
(lp297
S'atmosphere%1:26:00::'
p298
aS'U'
asS'decide.v.bnc.00072053'
p299
(lp300
S'1067501'
p301
asS'begin.v.bnc.00042359'
p302
(lp303
S'369201'
p304
asS'decide.v.bnc.00052771'
p305
(lp306
S'1067503'
p307
asS'begin.v.bnc.00009578'
p308
(lp309
S'369203'
p310
aS'U'
asS'bank.n.bnc.00180507'
p311
(lp312
S'bank%1:06:00::'
p313
asS'begin.v.bnc.00038894'
p314
(lp315
S'369201'
p316
aS'369203'
p317
asS'begin.v.bnc.00034647'
p318
(lp319
S'369203'
p320
asS'decide.v.bnc.00003635'
p321
(lp322
S'1067503'
p323
asS'atmosphere.n.bnc.00087479'
p324
(lp325
S'atmosphere%1:26:01::'
p326
asS'bank.n.bnc.00112744'
p327
(lp328
S'bank%1:14:00::'
p329
asS'decide.v.bnc.00024387'
p330
(lp331
S'1067503'
p332
asS'audience.n.bnc.00111637'
p333
(lp334
S'audience%1:14:00::'
p335
asS'audience.n.bnc.00018749'
p336
(lp337
S'audience%1:14:00::'
p338
asS'atmosphere.n.bnc.00219616'
p339
(lp340
S'atmosphere%1:26:01::'
p341
asS'begin.v.bnc.00035813'
p342
(lp343
S'369201'
p344
asS'atmosphere.n.bnc.00038997'
p345
(lp346
S'atmosphere%1:07:00::'
p347
asS'audience.n.bnc.00126482'
p348
(lp349
S'audience%1:14:01::'
p350
asS'audience.n.bnc.00095835'
p351
(lp352
S'audience%1:14:00::'
p353
aS'audience%1:14:01::'
p354
asS'decide.v.bnc.00071961'
p355
(lp356
S'1067501'
p357
asS'bank.n.bnc.00186820'
p358
(lp359
S'bank%1:17:01::'
p360
asS'audience.n.bnc.00117060'
p361
(lp362
S'audience%1:14:00::'
p363
asS'audience.n.bnc.00006989'
p364
(lp365
S'audience%1:14:00::'
p366
asS'climb.v.bnc.00060045'
p367
(lp368
S'770001'
p369
asS'ask.v.bnc.00030338'
p370
(lp371
S'238101'
p372
aS'238105'
p373
asS'decide.v.bnc.00067729'
p374
(lp375
S'1067503'
p376
asS'audience.n.bnc.00056739'
p377
(lp378
S'audience%1:14:00::'
p379
asS'bank.n.bnc.00100701'
p380
(lp381
S'bank%1:14:00::'
p382
asS'ask.v.bnc.00018125'
p383
(lp384
S'238105'
p385
asS'bank.n.bnc.00036797'
p386
(lp387
S'bank%1:17:01::'
p388
asS'audience.n.bnc.00018499'
p389
(lp390
S'audience%1:14:00::'
p391
aS'audience%1:14:01::'
p392
asS'atmosphere.n.bnc.00056040'
p393
(lp394
S'atmosphere%1:07:00::'
p395
aS'atmosphere%1:26:01::'
p396
asS'ask.v.bnc.00017420'
p397
(lp398
S'238105'
p399
asS'begin.v.bnc.00035992'
p400
(lp401
S'369201'
p402
asS'atmosphere.n.bnc.00223335'
p403
(lp404
S'atmosphere%1:15:00::'
p405
asS'bank.n.bnc.00062432'
p406
(lp407
S'bank%1:14:00::'
p408
asS'climb.v.bnc.00060217'
p409
(lp410
S'770001'
p411
asS'bank.n.bnc.00085877'
p412
(lp413
S'bank%1:14:00::'
p414
asS'atmosphere.n.bnc.00075613'
p415
(lp416
S'atmosphere%1:15:00::'
p417
aS'atmosphere%1:17:00::'
p418
asS'begin.v.bnc.00040692'
p419
(lp420
S'369203'
p421
aS'U'
asS'climb.v.bnc.00026966'
p422
(lp423
S'770001'
p424
asS'begin.v.bnc.00022988'
p425
(lp426
S'369201'
p427
asS'decide.v.bnc.00019580'
p428
(lp429
S'1067503'
p430
asS'begin.v.bnc.00039370'
p431
(lp432
S'U'
asS'bank.n.bnc.00036573'
p433
(lp434
S'bank%1:17:01::'
p435
asS'begin.v.bnc.00015434'
p436
(lp437
S'369201'
p438
asS'begin.v.bnc.00008604'
p439
(lp440
S'369201'
p441
aS'369202'
p442
asS'ask.v.bnc.00017725'
p443
(lp444
S'238105'
p445
asS'ask.v.bnc.00039959'
p446
(lp447
S'238105'
p448
asS'ask.v.bnc.00028286'
p449
(lp450
S'238102'
p451
aS'238106'
p452
asS'bank.n.bnc.00108550'
p453
(lp454
S'bank%1:14:00::'
p455
asS'ask.v.bnc.00032661'
p456
(lp457
S'238102'
p458
asS'ask.v.bnc.00021284'
p459
(lp460
S'U'
asS'ask.v.bnc.00019987'
p461
(lp462
S'238102'
p463
aS'238103'
p464
asS'audience.n.bnc.00100537'
p465
(lp466
S'audience%1:14:00::'
p467
asS'ask.v.bnc.00029744'
p468
(lp469
S'238105'
p470
asS'audience.n.bnc.00109868'
p471
(lp472
S'audience%1:14:01::'
p473
asS'begin.v.bnc.00023100'
p474
(lp475
S'369202'
p476
asS'begin.v.bnc.00005939'
p477
(lp478
S'369201'
p479
asS'ask.v.bnc.00021891'
p480
(lp481
S'U'
asS'atmosphere.n.bnc.00133353'
p482
(lp483
S'atmosphere%1:26:01::'
p484
asS'atmosphere.n.bnc.00036899'
p485
(lp486
S'atmosphere%1:07:00::'
p487
asS'ask.v.bnc.00038802'
p488
(lp489
S'238105'
p490
asS'bank.n.bnc.00164612'
p491
(lp492
S'bank%1:17:00::'
p493
asS'ask.v.bnc.00039413'
p494
(lp495
S'238105'
p496
asS'begin.v.bnc.00044423'
p497
(lp498
S'369202'
p499
asS'climb.v.bnc.00130741'
p500
(lp501
S'770005'
p502
asS'ask.v.bnc.00029346'
p503
(lp504
S'238102'
p505
asS'bank.n.bnc.00086437'
p506
(lp507
S'bank%1:14:00::'
p508
asS'climb.v.bnc.00059223'
p509
(lp510
S'770005'
p511
asS'atmosphere.n.bnc.00081517'
p512
(lp513
S'atmosphere%1:07:00::'
p514
aS'atmosphere%1:26:01::'
p515
asS'bank.n.bnc.00086439'
p516
(lp517
S'bank%1:14:00::'
p518
asS'ask.v.bnc.00017266'
p519
(lp520
S'238104'
p521
asS'ask.v.bnc.00019303'
p522
(lp523
S'U'
asS'decide.v.bnc.00039227'
p524
(lp525
S'1067503'
p526
asS'ask.v.bnc.00029515'
p527
(lp528
S'238101'
p529
asS'bank.n.bnc.00092152'
p530
(lp531
S'bank%1:14:00::'
p532
asS'ask.v.bnc.00021670'
p533
(lp534
S'238105'
p535
asS'bank.n.bnc.00000780'
p536
(lp537
S'bank%1:14:00::'
p538
asS'decide.v.bnc.00042072'
p539
(lp540
S'1067501'
p541
asS'audience.n.bnc.00036630'
p542
(lp543
S'audience%1:14:00::'
p544
asS'ask.v.bnc.00036563'
p545
(lp546
S'238102'
p547
asS'climb.v.bnc.00125949'
p548
(lp549
S'770005'
p550
asS'climb.v.bnc.00308921'
p551
(lp552
S'770005'
p553
asS'atmosphere.n.bnc.00039948'
p554
(lp555
S'atmosphere%1:26:01::'
p556
asS'decide.v.bnc.00047241'
p557
(lp558
S'1067501'
p559
asS'atmosphere.n.bnc.00013182'
p560
(lp561
S'atmosphere%1:07:00::'
p562
aS'atmosphere%1:26:01::'
p563
asS'audience.n.bnc.00136151'
p564
(lp565
S'audience%1:14:00::'
p566
asS'audience.n.bnc.00056877'
p567
(lp568
S'audience%1:14:00::'
p569
asS'audience.n.bnc.00136653'
p570
(lp571
S'audience%1:14:00::'
p572
asS'climb.v.bnc.00125540'
p573
(lp574
S'770001'
p575
asS'begin.v.bnc.00010422'
p576
(lp577
S'369201'
p578
asS'ask.v.bnc.00020886'
p579
(lp580
S'238106'
p581
asS'audience.n.bnc.00082286'
p582
(lp583
S'audience%1:14:00::'
p584
asS'ask.v.bnc.00040730'
p585
(lp586
S'238105'
p587
asS'audience.n.bnc.00091309'
p588
(lp589
S'audience%1:14:00::'
p590
asS'bank.n.bnc.00178107'
p591
(lp592
S'bank%1:17:01::'
p593
asS'ask.v.bnc.00020490'
p594
(lp595
S'U'
asS'ask.v.bnc.00028488'
p596
(lp597
S'238105'
p598
asS'bank.n.bnc.00179864'
p599
(lp600
S'bank%1:06:00::'
p601
aS'bank%1:14:00::'
p602
asS'begin.v.bnc.00034670'
p603
(lp604
S'369203'
p605
asS'decide.v.bnc.00008614'
p606
(lp607
S'1067504'
p608
asS'bank.n.bnc.00078843'
p609
(lp610
S'bank%1:14:00::'
p611
asS'begin.v.bnc.00010015'
p612
(lp613
S'369201'
p614
aS'369203'
p615
asS'atmosphere.n.bnc.00056407'
p616
(lp617
S'atmosphere%1:07:00::'
p618
asS'audience.n.bnc.00029273'
p619
(lp620
S'U'
asS'bank.n.bnc.00116364'
p621
(lp622
S'bank%1:14:00::'
p623
asS'bank.n.bnc.00116360'
p624
(lp625
S'bank%1:14:00::'
p626
asS'bank.n.bnc.00084027'
p627
(lp628
S'bank%1:14:00::'
p629
asS'audience.n.bnc.00040328'
p630
(lp631
S'audience%1:14:00::'
p632
asS'audience.n.bnc.00018360'
p633
(lp634
S'audience%1:14:00::'
p635
asS'ask.v.bnc.00017469'
p636
(lp637
S'238101'
p638
aS'238105'
p639
asS'audience.n.bnc.00018363'
p640
(lp641
S'audience%1:14:00::'
p642
aS'audience%1:14:01::'
p643
asS'atmosphere.n.bnc.00198487'
p644
(lp645
S'atmosphere%1:15:00::'
p646
asS'audience.n.bnc.00002866'
p647
(lp648
S'audience%1:14:01::'
p649
asS'ask.v.bnc.00039252'
p650
(lp651
S'238106'
p652
asS'bank.n.bnc.00156022'
p653
(lp654
S'bank%1:14:00::'
p655
asS'bank.n.bnc.00156023'
p656
(lp657
S'bank%1:14:00::'
p658
asS'bank.n.bnc.00065340'
p659
(lp660
S'U'
asS'ask.v.bnc.00019270'
p661
(lp662
S'238105'
p663
asS'ask.v.bnc.00017464'
p664
(lp665
S'238105'
p666
asS'atmosphere.n.bnc.00058201'
p667
(lp668
S'atmosphere%1:26:01::'
p669
asS'ask.v.bnc.00017467'
p670
(lp671
S'238105'
p672
asS'ask.v.bnc.00034372'
p673
(lp674
S'238102'
p675
asS'begin.v.bnc.00010083'
p676
(lp677
S'369203'
p678
asS'atmosphere.n.bnc.00113360'
p679
(lp680
S'atmosphere%1:26:01::'
p681
asS'audience.n.bnc.00082622'
p682
(lp683
S'audience%1:14:01::'
p684
asS'ask.v.bnc.00037210'
p685
(lp686
S'238105'
p687
asS'bank.n.bnc.00156032'
p688
(lp689
S'bank%1:14:00::'
p690
asS'begin.v.bnc.00018987'
p691
(lp692
S'369201'
p693
asS'bank.n.bnc.00097137'
p694
(lp695
S'bank%1:14:00::'
p696
asS'atmosphere.n.bnc.00114850'
p697
(lp698
S'atmosphere%1:26:01::'
p699
asS'bank.n.bnc.00090731'
p700
(lp701
S'bank%1:14:00::'
p702
asS'ask.v.bnc.00022845'
p703
(lp704
S'238102'
p705
asS'atmosphere.n.bnc.00082355'
p706
(lp707
S'atmosphere%1:26:01::'
p708
asS'begin.v.bnc.00012166'
p709
(lp710
S'369201'
p711
asS'atmosphere.n.bnc.00155868'
p712
(lp713
S'atmosphere%1:07:00::'
p714
asS'atmosphere.n.bnc.00006514'
p715
(lp716
S'atmosphere%1:07:00::'
p717
aS'atmosphere%1:26:01::'
p718
asS'ask.v.bnc.00040454'
p719
(lp720
S'238102'
p721
aS'238103'
p722
asS'begin.v.bnc.00018110'
p723
(lp724
S'369201'
p725
asS'begin.v.bnc.00015842'
p726
(lp727
S'369203'
p728
asS'decide.v.bnc.00056068'
p729
(lp730
S'1067501'
p731
asS'bank.n.bnc.00110067'
p732
(lp733
S'bank%1:14:00::'
p734
asS'climb.v.bnc.00059409'
p735
(lp736
S'770001'
p737
asS'bank.n.bnc.00165205'
p738
(lp739
S'bank%1:14:00::'
p740
asS'audience.n.bnc.00055809'
p741
(lp742
S'audience%1:14:00::'
p743
asS'decide.v.bnc.00063263'
p744
(lp745
S'1067503'
p746
asS'climb.v.bnc.00026601'
p747
(lp748
S'770001'
p749
asS'ask.v.bnc.00031165'
p750
(lp751
S'238104'
p752
asS'begin.v.bnc.00035093'
p753
(lp754
S'369201'
p755
asS'atmosphere.n.bnc.00056879'
p756
(lp757
S'atmosphere%1:07:00::'
p758
asS'audience.n.bnc.00083652'
p759
(lp760
S'audience%1:14:01::'
p761
asS'decide.v.bnc.00071469'
p762
(lp763
S'1067501'
p764
asS'atmosphere.n.bnc.00152248'
p765
(lp766
S'atmosphere%1:26:01::'
p767
asS'decide.v.bnc.00015540'
p768
(lp769
S'1067503'
p770
asS'decide.v.bnc.00020801'
p771
(lp772
S'1067503'
p773
asS'bank.n.bnc.00035958'
p774
(lp775
S'bank%1:17:01::'
p776
asS'bank.n.bnc.00142800'
p777
(lp778
S'bank%1:06:00::'
p779
asS'begin.v.bnc.00039982'
p780
(lp781
S'369201'
p782
asS'bank.n.bnc.00178158'
p783
(lp784
S'bank%1:17:01::'
p785
asS'audience.n.bnc.00113779'
p786
(lp787
S'audience%1:14:00::'
p788
asS'atmosphere.n.bnc.00225210'
p789
(lp790
S'atmosphere%1:15:00::'
p791
aS'atmosphere%1:17:00::'
p792
asS'bank.n.bnc.00156067'
p793
(lp794
S'bank%1:14:00::'
p795
asS'begin.v.bnc.00018458'
p796
(lp797
S'369202'
p798
asS'climb.v.bnc.00218197'
p799
(lp800
S'770001'
p801
asS'climb.v.bnc.00319010'
p802
(lp803
S'770005'
p804
asS'climb.v.bnc.00060602'
p805
(lp806
S'770001'
p807
asS'begin.v.bnc.00035718'
p808
(lp809
S'369204'
p810
asS'atmosphere.n.bnc.00056375'
p811
(lp812
S'atmosphere%1:07:00::'
p813
aS'atmosphere%1:26:01::'
p814
asS'audience.n.bnc.00109854'
p815
(lp816
S'audience%1:14:00::'
p817
asS'climb.v.bnc.00059871'
p818
(lp819
S'770001'
p820
asS'bank.n.bnc.00072272'
p821
(lp822
S'bank%1:14:00::'
p823
asS'decide.v.bnc.00002520'
p824
(lp825
S'1067503'
p826
asS'bank.n.bnc.00088071'
p827
(lp828
S'bank%1:14:00::'
p829
asS'audience.n.bnc.00121924'
p830
(lp831
S'audience%1:14:00::'
p832
asS'bank.n.bnc.00012927'
p833
(lp834
S'bank%1:14:01::'
p835
asS'decide.v.bnc.00034397'
p836
(lp837
S'1067502'
p838
asS'climb.v.bnc.00026074'
p839
(lp840
S'770001'
p841
asS'bank.n.bnc.00097924'
p842
(lp843
S'bank%1:14:00::'
p844
asS'climb.v.bnc.00060705'
p845
(lp846
S'770001'
p847
asS'climb.v.bnc.00124625'
p848
(lp849
S'770001'
p850
asS'decide.v.bnc.00042923'
p851
(lp852
S'1067501'
p853
asS'atmosphere.n.bnc.00109620'
p854
(lp855
S'atmosphere%1:15:00::'
p856
asS'ask.v.bnc.00020596'
p857
(lp858
S'238105'
p859
asS'atmosphere.n.bnc.00048526'
p860
(lp861
S'atmosphere%1:07:00::'
p862
aS'atmosphere%1:26:01::'
p863
asS'ask.v.bnc.00035878'
p864
(lp865
S'238106'
p866
asS'ask.v.bnc.00028926'
p867
(lp868
S'238101'
p869
asS'bank.n.bnc.00156061'
p870
(lp871
S'bank%1:14:00::'
p872
asS'bank.n.bnc.00135872'
p873
(lp874
S'bank%1:17:01::'
p875
asS'bank.n.bnc.00125867'
p876
(lp877
S'bank%1:17:00::'
p878
asS'ask.v.bnc.00030139'
p879
(lp880
S'238102'
p881
asS'climb.v.bnc.00046300'
p882
(lp883
S'770005'
p884
asS'climb.v.bnc.00324725'
p885
(lp886
S'770001'
p887
asS'bank.n.bnc.00108766'
p888
(lp889
S'bank%1:14:00::'
p890
asS'audience.n.bnc.00056817'
p891
(lp892
S'audience%1:14:00::'
p893
asS'ask.v.bnc.00029679'
p894
(lp895
S'238101'
p896
aS'238105'
p897
asS'audience.n.bnc.00057409'
p898
(lp899
S'audience%1:14:00::'
p900
asS'begin.v.bnc.00041402'
p901
(lp902
S'369201'
p903
asS'climb.v.bnc.00019136'
p904
(lp905
S'770001'
p906
aS'770005'
p907
asS'bank.n.bnc.00116241'
p908
(lp909
S'bank%1:14:00::'
p910
asS'atmosphere.n.bnc.00238596'
p911
(lp912
S'atmosphere%1:07:00::'
p913
asS'atmosphere.n.bnc.00061046'
p914
(lp915
S'atmosphere%1:26:01::'
p916
asS'bank.n.bnc.00186831'
p917
(lp918
S'bank%1:17:01::'
p919
asS'audience.n.bnc.00086795'
p920
(lp921
S'audience%1:14:00::'
p922
asS'begin.v.bnc.00038837'
p923
(lp924
S'369201'
p925
asS'decide.v.bnc.00041669'
p926
(lp927
S'1067503'
p928
asS'begin.v.bnc.00014787'
p929
(lp930
S'369201'
p931
aS'369203'
p932
asS'begin.v.bnc.00039443'
p933
(lp934
S'369201'
p935
asS'bank.n.bnc.00130571'
p936
(lp937
S'bank%1:17:01::'
p938
asS'atmosphere.n.bnc.00020114'
p939
(lp940
S'atmosphere%1:07:00::'
p941
asS'audience.n.bnc.00090797'
p942
(lp943
S'audience%1:14:00::'
p944
asS'audience.n.bnc.00056725'
p945
(lp946
S'audience%1:14:00::'
p947
asS'begin.v.bnc.00002705'
p948
(lp949
S'369202'
p950
asS'decide.v.bnc.00002943'
p951
(lp952
S'1067503'
p953
asS'bank.n.bnc.00100829'
p954
(lp955
S'bank%1:14:00::'
p956
asS'decide.v.bnc.00019379'
p957
(lp958
S'1067503'
p959
asS'ask.v.bnc.00022395'
p960
(lp961
S'238102'
p962
aS'238103'
p963
asS'ask.v.bnc.00040550'
p964
(lp965
S'238101'
p966
aS'238105'
p967
asS'audience.n.bnc.00091383'
p968
(lp969
S'audience%1:14:00::'
p970
asS'begin.v.bnc.00026915'
p971
(lp972
S'369201'
p973
asS'climb.v.bnc.00088178'
p974
(lp975
S'770001'
p976
asS'decide.v.bnc.00048217'
p977
(lp978
S'1067503'
p979
asS'ask.v.bnc.00029811'
p980
(lp981
S'238103'
p982
asS'bank.n.bnc.00097141'
p983
(lp984
S'bank%1:14:00::'
p985
asS'bank.n.bnc.00116023'
p986
(lp987
S'bank%1:14:00::'
p988
asS'decide.v.bnc.00071196'
p989
(lp990
S'1067501'
p991
asS'audience.n.bnc.00073589'
p992
(lp993
S'audience%1:26:00::'
p994
asS'bank.n.bnc.00123410'
p995
(lp996
S'bank%1:14:01::'
p997
asS'decide.v.bnc.00055158'
p998
(lp999
S'1067503'
p1000
asS'atmosphere.n.bnc.00246269'
p1001
(lp1002
S'U'
asS'ask.v.bnc.00017756'
p1003
(lp1004
S'238105'
p1005
asS'audience.n.bnc.00084373'
p1006
(lp1007
S'audience%1:14:00::'
p1008
aS'audience%1:14:01::'
p1009
asS'atmosphere.n.bnc.00111450'
p1010
(lp1011
S'atmosphere%1:26:01::'
p1012
asS'bank.n.bnc.00103104'
p1013
(lp1014
S'bank%1:14:00::'
p1015
asS'climb.v.bnc.00059430'
p1016
(lp1017
S'770001'
p1018
asS'bank.n.bnc.00122787'
p1019
(lp1020
S'bank%1:14:00::'
p1021
asS'bank.n.bnc.00076997'
p1022
(lp1023
S'bank%1:14:00::'
p1024
asS'bank.n.bnc.00076994'
p1025
(lp1026
S'bank%1:14:00::'
p1027
asS'bank.n.bnc.00048654'
p1028
(lp1029
S'bank%1:14:00::'
p1030
asS'ask.v.bnc.00031622'
p1031
(lp1032
S'238102'
p1033
aS'238106'
p1034
asS'atmosphere.n.bnc.00173351'
p1035
(lp1036
S'atmosphere%1:07:00::'
p1037
asS'atmosphere.n.bnc.00172869'
p1038
(lp1039
S'atmosphere%1:26:01::'
p1040
asS'begin.v.bnc.00042403'
p1041
(lp1042
S'369201'
p1043
aS'369203'
p1044
asS'decide.v.bnc.00072121'
p1045
(lp1046
S'1067503'
p1047
asS'climb.v.bnc.00305740'
p1048
(lp1049
S'770005'
p1050
asS'audience.n.bnc.00073615'
p1051
(lp1052
S'audience%1:26:00::'
p1053
asS'bank.n.bnc.00057986'
p1054
(lp1055
S'bank%1:06:00::'
p1056
aS'bank%1:14:00::'
p1057
asS'atmosphere.n.bnc.00223108'
p1058
(lp1059
S'atmosphere%1:26:01::'
p1060
asS'begin.v.bnc.00028284'
p1061
(lp1062
S'369203'
p1063
asS'atmosphere.n.bnc.00230015'
p1064
(lp1065
S'U'
asS'atmosphere.n.bnc.00064487'
p1066
(lp1067
S'atmosphere%1:26:01::'
p1068
asS'ask.v.bnc.00019738'
p1069
(lp1070
S'U'
asS'atmosphere.n.bnc.00223068'
p1071
(lp1072
S'atmosphere%1:26:01::'
p1073
asS'decide.v.bnc.00008460'
p1074
(lp1075
S'1067504'
p1076
asS'ask.v.bnc.00019883'
p1077
(lp1078
S'238105'
p1079
asS'bank.n.bnc.00078199'
p1080
(lp1081
S'bank%1:14:00::'
p1082
asS'bank.n.bnc.00162080'
p1083
(lp1084
S'bank%1:17:02::'
p1085
asS'ask.v.bnc.00028964'
p1086
(lp1087
S'238102'
p1088
aS'238103'
p1089
asS'begin.v.bnc.00036645'
p1090
(lp1091
S'369203'
p1092
asS'bank.n.bnc.00092146'
p1093
(lp1094
S'bank%1:14:00::'
p1095
asS'decide.v.bnc.00016113'
p1096
(lp1097
S'1067503'
p1098
asS'atmosphere.n.bnc.00245529'
p1099
(lp1100
S'atmosphere%1:26:01::'
p1101
asS'begin.v.bnc.00001512'
p1102
(lp1103
S'369202'
p1104
asS'begin.v.bnc.00015722'
p1105
(lp1106
S'U'
asS'climb.v.bnc.00156976'
p1107
(lp1108
S'770001'
p1109
asS'decide.v.bnc.00072048'
p1110
(lp1111
S'1067501'
p1112
asS'begin.v.bnc.00011430'
p1113
(lp1114
S'369201'
p1115
asS'ask.v.bnc.00032888'
p1116
(lp1117
S'238101'
p1118
asS'atmosphere.n.bnc.00128953'
p1119
(lp1120
S'atmosphere%1:26:01::'
p1121
asS'climb.v.bnc.00095983'
p1122
(lp1123
S'770004'
p1124
asS'atmosphere.n.bnc.00092662'
p1125
(lp1126
S'atmosphere%1:26:01::'
p1127
asS'ask.v.bnc.00019887'
p1128
(lp1129
S'U'
asS'bank.n.bnc.00057982'
p1130
(lp1131
S'bank%1:14:00::'
p1132
asS'audience.n.bnc.00092836'
p1133
(lp1134
S'audience%1:14:01::'
p1135
asS'begin.v.bnc.00011274'
p1136
(lp1137
S'369201'
p1138
asS'bank.n.bnc.00000728'
p1139
(lp1140
S'bank%1:14:00::'
p1141
asS'decide.v.bnc.00014143'
p1142
(lp1143
S'1067503'
p1144
asS'atmosphere.n.bnc.00019547'
p1145
(lp1146
S'atmosphere%1:26:01::'
p1147
asS'bank.n.bnc.00019443'
p1148
(lp1149
S'bank%1:14:00::'
p1150
asS'audience.n.bnc.00040333'
p1151
(lp1152
S'audience%1:14:00::'
p1153
asS'ask.v.bnc.00021704'
p1154
(lp1155
S'238101'
p1156
asS'bank.n.bnc.00083841'
p1157
(lp1158
S'bank%1:14:00::'
p1159
asS'climb.v.bnc.00060084'
p1160
(lp1161
S'770005'
p1162
asS'atmosphere.n.bnc.00056488'
p1163
(lp1164
S'atmosphere%1:26:01::'
p1165
asS'bank.n.bnc.00075833'
p1166
(lp1167
S'bank%1:14:00::'
p1168
asS'atmosphere.n.bnc.00091269'
p1169
(lp1170
S'atmosphere%1:26:01::'
p1171
asS'audience.n.bnc.00099293'
p1172
(lp1173
S'audience%1:14:01::'
p1174
asS'ask.v.bnc.00019362'
p1175
(lp1176
S'U'
asS'begin.v.bnc.00015372'
p1177
(lp1178
S'369201'
p1179
asS'bank.n.bnc.00180450'
p1180
(lp1181
S'bank%1:06:00::'
p1182
aS'bank%1:14:00::'
p1183
asS'audience.n.bnc.00018416'
p1184
(lp1185
S'audience%1:14:00::'
p1186
asS'bank.n.bnc.00106819'
p1187
(lp1188
S'bank%1:14:00::'
p1189
asS'bank.n.bnc.00106817'
p1190
(lp1191
S'bank%1:14:00::'
p1192
asS'audience.n.bnc.00005654'
p1193
(lp1194
S'audience%1:14:00::'
p1195
asS'begin.v.bnc.00003604'
p1196
(lp1197
S'369201'
p1198
asS'ask.v.bnc.00017880'
p1199
(lp1200
S'238101'
p1201
aS'238105'
p1202
asS'begin.v.bnc.00010073'
p1203
(lp1204
S'369201'
p1205
asS'audience.n.bnc.00068008'
p1206
(lp1207
S'audience%1:14:00::'
p1208
asS'decide.v.bnc.00029550'
p1209
(lp1210
S'1067504'
p1211
asS'atmosphere.n.bnc.00007201'
p1212
(lp1213
S'atmosphere%1:26:01::'
p1214
asS'begin.v.bnc.00025887'
p1215
(lp1216
S'369201'
p1217
aS'369203'
p1218
asS'atmosphere.n.bnc.00233147'
p1219
(lp1220
S'U'
asS'bank.n.bnc.00140509'
p1221
(lp1222
S'bank%1:14:00::'
p1223
asS'audience.n.bnc.00003028'
p1224
(lp1225
S'audience%1:14:00::'
p1226
asS'ask.v.bnc.00017016'
p1227
(lp1228
S'238105'
p1229
asS'decide.v.bnc.00068033'
p1230
(lp1231
S'1067503'
p1232
asS'audience.n.bnc.00127265'
p1233
(lp1234
S'audience%1:14:01::'
p1235
asS'begin.v.bnc.00008276'
p1236
(lp1237
S'369201'
p1238
asS'climb.v.bnc.00285489'
p1239
(lp1240
S'770001'
p1241
asS'bank.n.bnc.00105291'
p1242
(lp1243
S'bank%1:14:00::'
p1244
asS'begin.v.bnc.00023884'
p1245
(lp1246
S'369201'
p1247
asS'ask.v.bnc.00028392'
p1248
(lp1249
S'238102'
p1250
asS'climb.v.bnc.00025913'
p1251
(lp1252
S'770001'
p1253
asS'begin.v.bnc.00035498'
p1254
(lp1255
S'369202'
p1256
asS'decide.v.bnc.00046629'
p1257
(lp1258
S'1067503'
p1259
asS'bank.n.bnc.00137646'
p1260
(lp1261
S'bank%1:17:01::'
p1262
asS'climb.v.bnc.00308754'
p1263
(lp1264
S'770005'
p1265
asS'ask.v.bnc.00025589'
p1266
(lp1267
S'238105'
p1268
asS'begin.v.bnc.00012779'
p1269
(lp1270
S'369201'
p1271
asS'audience.n.bnc.00057541'
p1272
(lp1273
S'audience%1:14:00::'
p1274
aS'audience%1:14:01::'
p1275
asS'decide.v.bnc.00046764'
p1276
(lp1277
S'1067503'
p1278
asS'climb.v.bnc.00004294'
p1279
(lp1280
S'770005'
p1281
asS'ask.v.bnc.00020274'
p1282
(lp1283
S'238105'
p1284
asS'ask.v.bnc.00026827'
p1285
(lp1286
S'238102'
p1287
asS'begin.v.bnc.00020032'
p1288
(lp1289
S'369201'
p1290
asS'decide.v.bnc.00019619'
p1291
(lp1292
S'1067503'
p1293
asS'ask.v.bnc.00039874'
p1294
(lp1295
S'238106'
p1296
asS'decide.v.bnc.00020547'
p1297
(lp1298
S'1067503'
p1299
asS'begin.v.bnc.00002398'
p1300
(lp1301
S'369201'
p1302
asS'audience.n.bnc.00055748'
p1303
(lp1304
S'audience%1:14:01::'
p1305
asS'begin.v.bnc.00020728'
p1306
(lp1307
S'369203'
p1308
asS'decide.v.bnc.00022220'
p1309
(lp1310
S'1067503'
p1311
asS'climb.v.bnc.00047556'
p1312
(lp1313
S'770005'
p1314
asS'ask.v.bnc.00029764'
p1315
(lp1316
S'238101'
p1317
asS'atmosphere.n.bnc.00130584'
p1318
(lp1319
S'atmosphere%1:26:01::'
p1320
asS'bank.n.bnc.00079579'
p1321
(lp1322
S'bank%1:14:00::'
p1323
asS'audience.n.bnc.00097037'
p1324
(lp1325
S'audience%1:14:01::'
p1326
asS'climb.v.bnc.00194711'
p1327
(lp1328
S'770001'
p1329
asS'atmosphere.n.bnc.00060967'
p1330
(lp1331
S'atmosphere%1:15:00::'
p1332
aS'atmosphere%1:26:00::'
p1333
asS'bank.n.bnc.00080151'
p1334
(lp1335
S'bank%1:14:00::'
p1336
asS'atmosphere.n.bnc.00188346'
p1337
(lp1338
S'atmosphere%1:26:01::'
p1339
asS'audience.n.bnc.00090126'
p1340
(lp1341
S'audience%1:26:00::'
p1342
asS'audience.n.bnc.00090124'
p1343
(lp1344
S'audience%1:26:00::'
p1345
asS'audience.n.bnc.00100555'
p1346
(lp1347
S'audience%1:14:00::'
p1348
asS'atmosphere.n.bnc.00108232'
p1349
(lp1350
S'atmosphere%1:07:00::'
p1351
aS'atmosphere%1:26:01::'
p1352
asS'audience.n.bnc.00018463'
p1353
(lp1354
S'audience%1:14:00::'
p1355
aS'audience%1:14:01::'
p1356
asS'audience.n.bnc.00091308'
p1357
(lp1358
S'audience%1:14:00::'
p1359
asS'atmosphere.n.bnc.00217644'
p1360
(lp1361
S'atmosphere%1:26:01::'
p1362
asS'bank.n.bnc.00178151'
p1363
(lp1364
S'bank%1:17:01::'
p1365
asS'bank.n.bnc.00139096'
p1366
(lp1367
S'bank%1:06:00::'
p1368
asS'begin.v.bnc.00009659'
p1369
(lp1370
S'369202'
p1371
asS'decide.v.bnc.00046482'
p1372
(lp1373
S'1067503'
p1374
asS'bank.n.bnc.00020787'
p1375
(lp1376
S'bank%1:17:00::'
p1377
aS'bank%1:17:01::'
p1378
asS'climb.v.bnc.00124518'
p1379
(lp1380
S'770001'
p1381
asS'audience.n.bnc.00057321'
p1382
(lp1383
S'audience%1:14:00::'
p1384
asS'bank.n.bnc.00101061'
p1385
(lp1386
S'bank%1:14:00::'
p1387
asS'bank.n.bnc.00119083'
p1388
(lp1389
S'bank%1:14:00::'
p1390
asS'bank.n.bnc.00087230'
p1391
(lp1392
S'bank%1:14:00::'
p1393
asS'audience.n.bnc.00096915'
p1394
(lp1395
S'audience%1:14:00::'
p1396
asS'begin.v.bnc.00009839'
p1397
(lp1398
S'369201'
p1399
aS'369203'
p1400
asS'climb.v.bnc.00060431'
p1401
(lp1402
S'770001'
p1403
asS'decide.v.bnc.00051530'
p1404
(lp1405
S'1067504'
p1406
asS'climb.v.bnc.00093533'
p1407
(lp1408
S'U'
asS'audience.n.bnc.00082985'
p1409
(lp1410
S'audience%1:14:01::'
p1411
asS'ask.v.bnc.00030543'
p1412
(lp1413
S'238105'
p1414
asS'bank.n.bnc.00051778'
p1415
(lp1416
S'bank%1:14:00::'
p1417
asS'ask.v.bnc.00033169'
p1418
(lp1419
S'238105'
p1420
asS'audience.n.bnc.00056755'
p1421
(lp1422
S'audience%1:14:00::'
p1423
asS'atmosphere.n.bnc.00217796'
p1424
(lp1425
S'atmosphere%1:07:00::'
p1426
asS'atmosphere.n.bnc.00202781'
p1427
(lp1428
S'atmosphere%1:07:00::'
p1429
asS'ask.v.bnc.00037788'
p1430
(lp1431
S'U'
asS'atmosphere.n.bnc.00015043'
p1432
(lp1433
S'atmosphere%1:26:01::'
p1434
asS'bank.n.bnc.00187251'
p1435
(lp1436
S'bank%1:06:00::'
p1437
asS'audience.n.bnc.00115368'
p1438
(lp1439
S'audience%1:14:00::'
p1440
asS'atmosphere.n.bnc.00006851'
p1441
(lp1442
S'atmosphere%1:26:01::'
p1443
asS'bank.n.bnc.00117442'
p1444
(lp1445
S'bank%1:14:00::'
p1446
asS'begin.v.bnc.00015982'
p1447
(lp1448
S'369201'
p1449
asS'atmosphere.n.bnc.00009445'
p1450
(lp1451
S'atmosphere%1:07:00::'
p1452
aS'atmosphere%1:26:01::'
p1453
asS'ask.v.bnc.00022224'
p1454
(lp1455
S'U'
asS'begin.v.bnc.00012781'
p1456
(lp1457
S'369201'
p1458
asS'audience.n.bnc.00113722'
p1459
(lp1460
S'audience%1:14:01::'
p1461
asS'atmosphere.n.bnc.00233116'
p1462
(lp1463
S'atmosphere%1:07:00::'
p1464
asS'bank.n.bnc.00106821'
p1465
(lp1466
S'bank%1:14:00::'
p1467
asS'audience.n.bnc.00126793'
p1468
(lp1469
S'audience%1:14:01::'
p1470
asS'audience.n.bnc.00073592'
p1471
(lp1472
S'audience%1:26:00::'
p1473
asS'audience.n.bnc.00077896'
p1474
(lp1475
S'audience%1:14:00::'
p1476
asS'audience.n.bnc.00091212'
p1477
(lp1478
S'audience%1:14:00::'
p1479
asS'audience.n.bnc.00018603'
p1480
(lp1481
S'audience%1:14:01::'
p1482
asS'ask.v.bnc.00017744'
p1483
(lp1484
S'238102'
p1485
asS'atmosphere.n.bnc.00137177'
p1486
(lp1487
S'atmosphere%1:07:00::'
p1488
aS'atmosphere%1:26:01::'
p1489
asS'bank.n.bnc.00100684'
p1490
(lp1491
S'bank%1:14:00::'
p1492
asS'climb.v.bnc.00059740'
p1493
(lp1494
S'770005'
p1495
asS'decide.v.bnc.00051966'
p1496
(lp1497
S'1067503'
p1498
asS'bank.n.bnc.00084355'
p1499
(lp1500
S'bank%1:14:00::'
p1501
asS'bank.n.bnc.00084358'
p1502
(lp1503
S'bank%1:14:00::'
p1504
asS'ask.v.bnc.00020814'
p1505
(lp1506
S'238106'
p1507
asS'audience.n.bnc.00083633'
p1508
(lp1509
S'audience%1:14:01::'
p1510
asS'bank.n.bnc.00161608'
p1511
(lp1512
S'bank%1:17:01::'
p1513
asS'audience.n.bnc.00073605'
p1514
(lp1515
S'audience%1:26:00::'
p1516
asS'climb.v.bnc.00020526'
p1517
(lp1518
S'770001'
p1519
asS'atmosphere.n.bnc.00057787'
p1520
(lp1521
S'atmosphere%1:15:00::'
p1522
asS'audience.n.bnc.00030725'
p1523
(lp1524
S'audience%1:14:00::'
p1525
asS'climb.v.bnc.00059731'
p1526
(lp1527
S'770005'
p1528
asS'bank.n.bnc.00142821'
p1529
(lp1530
S'bank%1:06:00::'
p1531
asS'ask.v.bnc.00021032'
p1532
(lp1533
S'U'
asS'decide.v.bnc.00064795'
p1534
(lp1535
S'1067503'
p1536
asS'begin.v.bnc.00024634'
p1537
(lp1538
S'369204'
p1539
asS'bank.n.bnc.00095332'
p1540
(lp1541
S'bank%1:06:00::'
p1542
asS'bank.n.bnc.00162822'
p1543
(lp1544
S'bank%1:17:02::'
p1545
asS'ask.v.bnc.00019892'
p1546
(lp1547
S'238105'
p1548
asS'decide.v.bnc.00063866'
p1549
(lp1550
S'1067503'
p1551
asS'audience.n.bnc.00018505'
p1552
(lp1553
S'audience%1:14:00::'
p1554
asS'climb.v.bnc.00278146'
p1555
(lp1556
S'770001'
p1557
asS'begin.v.bnc.00004137'
p1558
(lp1559
S'369201'
p1560
asS'climb.v.bnc.00060659'
p1561
(lp1562
S'770001'
p1563
asS'begin.v.bnc.00009161'
p1564
(lp1565
S'369202'
p1566
asS'bank.n.bnc.00079581'
p1567
(lp1568
S'bank%1:14:00::'
p1569
asS'bank.n.bnc.00079580'
p1570
(lp1571
S'bank%1:14:00::'
p1572
asS'climb.v.bnc.00059923'
p1573
(lp1574
S'770005'
p1575
asS'bank.n.bnc.00079582'
p1576
(lp1577
S'bank%1:14:00::'
p1578
asS'bank.n.bnc.00079585'
p1579
(lp1580
S'bank%1:14:00::'
p1581
asS'audience.n.bnc.00136178'
p1582
(lp1583
S'audience%1:14:00::'
p1584
asS'bank.n.bnc.00080168'
p1585
(lp1586
S'bank%1:14:00::'
p1587
asS'climb.v.bnc.00059557'
p1588
(lp1589
S'U'
asS'decide.v.bnc.00033828'
p1590
(lp1591
S'1067501'
p1592
asS'climb.v.bnc.00057061'
p1593
(lp1594
S'770005'
p1595
asS'ask.v.bnc.00036894'
p1596
(lp1597
S'238102'
p1598
aS'238106'
p1599
asS'audience.n.bnc.00100461'
p1600
(lp1601
S'audience%1:14:00::'
p1602
asS'climb.v.bnc.00276976'
p1603
(lp1604
S'770001'
p1605
asS'begin.v.bnc.00001099'
p1606
(lp1607
S'369201'
p1608
asS'bank.n.bnc.00080414'
p1609
(lp1610
S'bank%1:14:00::'
p1611
asS'begin.v.bnc.00017572'
p1612
(lp1613
S'369201'
p1614
asS'ask.v.bnc.00030259'
p1615
(lp1616
S'238103'
p1617
asS'begin.v.bnc.00009567'
p1618
(lp1619
S'369203'
p1620
asS'audience.n.bnc.00103378'
p1621
(lp1622
S'audience%1:14:00::'
p1623
asS'atmosphere.n.bnc.00230285'
p1624
(lp1625
S'atmosphere%1:26:01::'
p1626
asS'bank.n.bnc.00059056'
p1627
(lp1628
S'bank%1:14:00::'
p1629
asS'audience.n.bnc.00103374'
p1630
(lp1631
S'audience%1:14:00::'
p1632
asS'begin.v.bnc.00009569'
p1633
(lp1634
S'369203'
p1635
asS'ask.v.bnc.00016783'
p1636
(lp1637
S'U'
asS'atmosphere.n.bnc.00098543'
p1638
(lp1639
S'atmosphere%1:26:01::'
p1640
asS'bank.n.bnc.00092861'
p1641
(lp1642
S'bank%1:14:00::'
p1643
asS'begin.v.bnc.00039556'
p1644
(lp1645
S'369202'
p1646
aS'369204'
p1647
asS'climb.v.bnc.00282517'
p1648
(lp1649
S'770001'
p1650
asS'ask.v.bnc.00037437'
p1651
(lp1652
S'238101'
p1653
aS'238105'
p1654
asS'ask.v.bnc.00016864'
p1655
(lp1656
S'U'
asS'bank.n.bnc.00101056'
p1657
(lp1658
S'bank%1:14:00::'
p1659
asS'bank.n.bnc.00101054'
p1660
(lp1661
S'bank%1:14:00::'
p1662
asS'begin.v.bnc.00035123'
p1663
(lp1664
S'369203'
p1665
asS'audience.n.bnc.00110620'
p1666
(lp1667
S'audience%1:14:00::'
p1668
asS'decide.v.bnc.00020784'
p1669
(lp1670
S'1067503'
p1671
asS'atmosphere.n.bnc.00194233'
p1672
(lp1673
S'atmosphere%1:26:01::'
p1674
aS'U'
asS'audience.n.bnc.00087723'
p1675
(lp1676
S'audience%1:14:00::'
p1677
asS'bank.n.bnc.00036887'
p1678
(lp1679
S'bank%1:17:01::'
p1680
asS'audience.n.bnc.00099288'
p1681
(lp1682
S'audience%1:14:01::'
p1683
asS'decide.v.bnc.00018291'
p1684
(lp1685
S'1067503'
p1686
asS'ask.v.bnc.00019217'
p1687
(lp1688
S'238101'
p1689
aS'U'
asS'begin.v.bnc.00002236'
p1690
(lp1691
S'369202'
p1692
asS'bank.n.bnc.00158029'
p1693
(lp1694
S'bank%1:21:00::'
p1695
asS'decide.v.bnc.00055750'
p1696
(lp1697
S'1067503'
p1698
asS'climb.v.bnc.00025921'
p1699
(lp1700
S'770002'
p1701
asS'ask.v.bnc.00036638'
p1702
(lp1703
S'238101'
p1704
aS'238105'
p1705
asS'climb.v.bnc.00059411'
p1706
(lp1707
S'770005'
p1708
asS'ask.v.bnc.00030517'
p1709
(lp1710
S'238104'
p1711
asS'audience.n.bnc.00107170'
p1712
(lp1713
S'audience%1:14:00::'
p1714
asS'audience.n.bnc.00056703'
p1715
(lp1716
S'audience%1:14:00::'
p1717
asS'audience.n.bnc.00018931'
p1718
(lp1719
S'audience%1:14:01::'
p1720
asS'begin.v.bnc.00010844'
p1721
(lp1722
S'U'
asS'begin.v.bnc.00041081'
p1723
(lp1724
S'369201'
p1725
asS'ask.v.bnc.00040673'
p1726
(lp1727
S'238101'
p1728
asS'begin.v.bnc.00016307'
p1729
(lp1730
S'369201'
p1731
asS'begin.v.bnc.00040707'
p1732
(lp1733
S'369201'
p1734
aS'369203'
p1735
asS'begin.v.bnc.00015904'
p1736
(lp1737
S'369203'
p1738
asS'atmosphere.n.bnc.00055775'
p1739
(lp1740
S'atmosphere%1:07:00::'
p1741
aS'atmosphere%1:26:01::'
p1742
asS'climb.v.bnc.00165167'
p1743
(lp1744
S'770005'
p1745
asS'atmosphere.n.bnc.00120918'
p1746
(lp1747
S'atmosphere%1:26:01::'
p1748
asS'audience.n.bnc.00007365'
p1749
(lp1750
S'audience%1:14:01::'
p1751
asS'decide.v.bnc.00062666'
p1752
(lp1753
S'1067501'
p1754
asS'decide.v.bnc.00054574'
p1755
(lp1756
S'1067503'
p1757
asS'atmosphere.n.bnc.00014322'
p1758
(lp1759
S'atmosphere%1:26:00::'
p1760
aS'atmosphere%1:26:01::'
p1761
asS'decide.v.bnc.00069931'
p1762
(lp1763
S'1067501'
p1764
asS'climb.v.bnc.00060205'
p1765
(lp1766
S'770005'
p1767
asS'atmosphere.n.bnc.00056857'
p1768
(lp1769
S'atmosphere%1:07:00::'
p1770
asS'bank.n.bnc.00084314'
p1771
(lp1772
S'bank%1:14:00::'
p1773
asS'begin.v.bnc.00009574'
p1774
(lp1775
S'369203'
p1776
aS'U'
asS'climb.v.bnc.00165344'
p1777
(lp1778
S'770005'
p1779
asS'bank.n.bnc.00094895'
p1780
(lp1781
S'bank%1:14:00::'
p1782
asS'audience.n.bnc.00003550'
p1783
(lp1784
S'audience%1:14:01::'
p1785
asS'decide.v.bnc.00016323'
p1786
(lp1787
S'1067503'
p1788
asS'begin.v.bnc.00036454'
p1789
(lp1790
S'369203'
p1791
asS'bank.n.bnc.00156013'
p1792
(lp1793
S'bank%1:14:00::'
p1794
asS'begin.v.bnc.00009338'
p1795
(lp1796
S'369201'
p1797
aS'369203'
p1798
asS'begin.v.bnc.00017026'
p1799
(lp1800
S'369201'
p1801
aS'369203'
p1802
asS'bank.n.bnc.00013593'
p1803
(lp1804
S'bank%1:14:00::'
p1805
asS'bank.n.bnc.00090240'
p1806
(lp1807
S'bank%1:06:00::'
p1808
asS'climb.v.bnc.00059618'
p1809
(lp1810
S'770005'
p1811
asS'atmosphere.n.bnc.00120724'
p1812
(lp1813
S'atmosphere%1:15:00::'
p1814
aS'atmosphere%1:26:00::'
p1815
asS'bank.n.bnc.00125340'
p1816
(lp1817
S'bank%1:17:00::'
p1818
asS'bank.n.bnc.00162513'
p1819
(lp1820
S'bank%1:17:01::'
p1821
asS'climb.v.bnc.00334390'
p1822
(lp1823
S'770001'
p1824
asS'atmosphere.n.bnc.00058194'
p1825
(lp1826
S'atmosphere%1:26:01::'
p1827
asS'atmosphere.n.bnc.00065062'
p1828
(lp1829
S'atmosphere%1:26:01::'
p1830
asS'ask.v.bnc.00021293'
p1831
(lp1832
S'U'
asS'decide.v.bnc.00068273'
p1833
(lp1834
S'1067501'
p1835
asS'bank.n.bnc.00078303'
p1836
(lp1837
S'bank%1:14:00::'
p1838
asS'climb.v.bnc.00110100'
p1839
(lp1840
S'770001'
p1841
asS'climb.v.bnc.00059869'
p1842
(lp1843
S'770001'
p1844
asS'audience.n.bnc.00096280'
p1845
(lp1846
S'audience%1:14:00::'
p1847
asS'audience.n.bnc.00031300'
p1848
(lp1849
S'audience%1:14:00::'
p1850
asS'climb.v.bnc.00059605'
p1851
(lp1852
S'770005'
p1853
asS'climb.v.bnc.00087894'
p1854
(lp1855
S'770001'
p1856
asS'bank.n.bnc.00105204'
p1857
(lp1858
S'bank%1:14:00::'
p1859
asS'begin.v.bnc.00024635'
p1860
(lp1861
S'369201'
p1862
asS'bank.n.bnc.00101957'
p1863
(lp1864
S'bank%1:06:00::'
p1865
asS'ask.v.bnc.00019610'
p1866
(lp1867
S'238105'
p1868
asS'atmosphere.n.bnc.00125463'
p1869
(lp1870
S'atmosphere%1:26:01::'
p1871
asS'bank.n.bnc.00084812'
p1872
(lp1873
S'bank%1:14:00::'
p1874
as.